target datalayout = "e-m:e-p270:32:32-p271:32:32-p272:64:64-i64:64-i128:128-f80:128-n8:16:32:64-S128"
target triple = "x86_64-pc-linux-gnu"

%struct.PlatformTarget = type { ptr, i32, ptr, ptr, i32, i32, i32, i32, i32, i32, i32, [7 x %struct.AlignData], [7 x %struct.AlignData], [7 x %struct.AlignData], i32, i16, %union.anon.88, i8, i8, i8, i8, i8, i8, i8, i8, i8, i8, %struct.AlignData, i32, i32, i32, i32, i32, i32, i32, i32, i32, i32, i32, i32, i32, i32, i32, i32, ptr }
%union.anon.88 = type { %struct.anon.90 }
%struct.anon.90 = type { %struct.X86Features, i32, i32 }
%struct.X86Features = type { [2 x i64], ptr }
%struct.AlignData = type { i32, i32 }
%struct.Type_ = type { i32, ptr, ptr, ptr, %union.anon.85, ptr, ptr, %union.anon.87 }
%union.anon.85 = type { ptr }
%union.anon.87 = type { %struct.TypeFunction }
%struct.TypeFunction = type { ptr, ptr, ptr }
%struct.Decl_ = type { ptr, ptr, %union.SourceSpan, i64, %union.anon.5, i32, %union.anon.6, i64, ptr, ptr, ptr, %union.anon.7 }
%union.SourceSpan = type { i64 }
%union.anon.5 = type { ptr }
%union.anon.6 = type { i16 }
%union.anon.7 = type { %struct.FuncDecl }
%struct.FuncDecl = type { i32, [4 x i8], %struct.Signature_, i32, i32, %union.anon.14 }
%struct.Signature_ = type <{ %struct.CalleeAttributes, i16, i8, i32, i32, [4 x i8], ptr }>
%struct.CalleeAttributes = type { i8 }
%union.anon.14 = type { %struct.anon.15 }
%struct.anon.15 = type { i16, %union.anon.16 }
%union.anon.16 = type { ptr }
%struct.anon.8 = type { ptr, ptr, %union.anon.9 }
%union.anon.9 = type { %struct.BitStructDecl }
%struct.BitStructDecl = type { ptr, ptr, i8 }
%struct.TypeArray = type { ptr, i32 }
%struct.StructDecl = type { i32, ptr, i32, i16 }
%struct.VHeader_ = type { i32, i32, [0 x i8] }

@platform_target = external global %struct.PlatformTarget, align 8
@.str = private unnamed_addr constant [36 x i8] c"FATAL ERROR %s -> in %s @ in %s:%d \00", align 1
@.str.1 = private unnamed_addr constant [22 x i8] c"Should be unreachable\00", align 1
@.str.2 = private unnamed_addr constant [114 x i8] c"generated/home/dtcxzyw/WorkSpace/Projects/compilers/llvm-opt-benchmark/bench/c3c/c3c/src/compiler/abi/c_abi_x86.c\00", align 1
@__func__.x86_should_return_type_in_reg = private unnamed_addr constant [30 x i8] c"x86_should_return_type_in_reg\00", align 1

; Function Attrs: nounwind uwtable
define internal zeroext i1 @is_power_of_two(i64 noundef %0) #0 {
  %2 = alloca i64, align 8
  store i64 %0, ptr %2, align 8
  %3 = load i64, ptr %2, align 8
  %4 = icmp ne i64 %3, 0
  br i1 %4, label %5, label %11

5:                                                ; preds = %1
  %6 = load i64, ptr %2, align 8
  %7 = load i64, ptr %2, align 8
  %8 = sub i64 %7, 1
  %9 = and i64 %6, %8
  %10 = icmp eq i64 %9, 0
  br label %11

11:                                               ; preds = %5, %1
  %12 = phi i1 [ false, %1 ], [ %10, %5 ]
  ret i1 %12
}

; Function Attrs: nounwind uwtable
define internal zeroext i1 @x86_should_return_type_in_reg(ptr noundef %0) #0 {
  %2 = alloca i32, align 4
  %3 = alloca ptr, align 8
  %4 = alloca ptr, align 8
  %5 = alloca i1, align 1
  %6 = alloca ptr, align 8
  %7 = alloca i64, align 8
  %8 = alloca ptr, align 8
  %9 = alloca i32, align 4
  %10 = alloca i32, align 4
  %11 = alloca ptr, align 8
  store ptr %0, ptr %6, align 8
  %12 = load ptr, ptr %6, align 8
  %13 = call i32 @type_size(ptr noundef %12)
  %14 = zext i32 %13 to i64
  store i64 %14, ptr %7, align 8
  %15 = load i64, ptr %7, align 8
  %16 = icmp ugt i64 %15, 8
  br i1 %16, label %17, label %18

17:                                               ; preds = %1
  store i1 false, ptr %5, align 1
  br label %91

18:                                               ; preds = %1
  %19 = load i8, ptr getelementptr inbounds (%struct.PlatformTarget, ptr @platform_target, i32 0, i32 16), align 8
  %20 = lshr i8 %19, 2
  %21 = and i8 %20, 1
  %22 = trunc i8 %21 to i1
  br i1 %22, label %27, label %23

23:                                               ; preds = %18
  %24 = load i64, ptr %7, align 8
  %25 = call zeroext i1 @is_power_of_two(i64 noundef %24)
  br i1 %25, label %27, label %26

26:                                               ; preds = %23
  store i1 false, ptr %5, align 1
  br label %91

27:                                               ; preds = %23, %18
  %28 = load ptr, ptr %6, align 8
  %29 = getelementptr inbounds %struct.Type_, ptr %28, i32 0, i32 0
  %30 = load i32, ptr %29, align 8
  %31 = icmp eq i32 %30, 37
  br i1 %31, label %32, label %35

32:                                               ; preds = %27
  %33 = load i64, ptr %7, align 8
  %34 = icmp ult i64 %33, 8
  store i1 %34, ptr %5, align 1
  br label %91

35:                                               ; preds = %27
  %36 = load ptr, ptr %6, align 8
  %37 = getelementptr inbounds %struct.Type_, ptr %36, i32 0, i32 0
  %38 = load i32, ptr %37, align 8
  switch i32 %38, label %50 [
    i32 37, label %39
    i32 1, label %39
    i32 25, label %39
    i32 31, label %39
    i32 32, label %39
    i32 24, label %39
    i32 30, label %39
    i32 22, label %39
    i32 21, label %39
    i32 29, label %39
    i32 42, label %39
    i32 36, label %39
    i32 38, label %39
    i32 39, label %39
    i32 0, label %39
    i32 43, label %39
    i32 41, label %39
    i32 40, label %39
    i32 35, label %39
    i32 28, label %39
    i32 18, label %39
    i32 20, label %39
    i32 3, label %42
    i32 4, label %42
    i32 5, label %42
    i32 6, label %42
    i32 7, label %42
    i32 8, label %42
    i32 9, label %42
    i32 10, label %42
    i32 11, label %42
    i32 12, label %42
    i32 14, label %42
    i32 13, label %42
    i32 15, label %42
    i32 16, label %42
    i32 17, label %42
    i32 2, label %42
    i32 23, label %42
    i32 34, label %42
    i32 19, label %42
    i32 33, label %43
    i32 26, label %49
    i32 27, label %49
  ]

39:                                               ; preds = %35, %35, %35, %35, %35, %35, %35, %35, %35, %35, %35, %35, %35, %35, %35, %35, %35, %35, %35, %35, %35, %35
  br label %40

40:                                               ; preds = %39
  call void (ptr, ...) @error_exit(ptr noundef @.str, ptr noundef @.str.1, ptr noundef @__func__.x86_should_return_type_in_reg, ptr noundef @.str.2, i32 noundef 126) #4
  unreachable

41:                                               ; No predecessors!
  br label %42

42:                                               ; preds = %41, %35, %35, %35, %35, %35, %35, %35, %35, %35, %35, %35, %35, %35, %35, %35, %35, %35, %35, %35
  store i1 true, ptr %5, align 1
  br label %91

43:                                               ; preds = %35
  %44 = load ptr, ptr %6, align 8
  %45 = getelementptr inbounds %struct.Type_, ptr %44, i32 0, i32 7
  %46 = getelementptr inbounds %struct.TypeArray, ptr %45, i32 0, i32 0
  %47 = load ptr, ptr %46, align 8
  %48 = call zeroext i1 @x86_should_return_type_in_reg(ptr noundef %47)
  store i1 %48, ptr %5, align 1
  br label %91

49:                                               ; preds = %35, %35
  br label %50

50:                                               ; preds = %49, %35
  %51 = load ptr, ptr %6, align 8
  %52 = getelementptr inbounds %struct.Type_, ptr %51, i32 0, i32 7
  %53 = load ptr, ptr %52, align 8
  %54 = getelementptr inbounds %struct.Decl_, ptr %53, i32 0, i32 11
  %55 = getelementptr inbounds %struct.anon.8, ptr %54, i32 0, i32 2
  %56 = getelementptr inbounds %struct.StructDecl, ptr %55, i32 0, i32 1
  %57 = load ptr, ptr %56, align 8
  store ptr %57, ptr %8, align 8
  store i32 0, ptr %9, align 4
  %58 = load ptr, ptr %8, align 8
  store ptr %58, ptr %3, align 8
  %59 = load ptr, ptr %3, align 8
  %60 = icmp ne ptr %59, null
  br i1 %60, label %62, label %61

61:                                               ; preds = %50
  store i32 0, ptr %2, align 4
  br label %67

62:                                               ; preds = %50
  %63 = load ptr, ptr %3, align 8
  store ptr %63, ptr %4, align 8
  %64 = load ptr, ptr %4, align 8
  %65 = getelementptr inbounds %struct.VHeader_, ptr %64, i64 -1
  %66 = load i32, ptr %65, align 4
  store i32 %66, ptr %2, align 4
  br label %67

67:                                               ; preds = %62, %61
  %68 = load i32, ptr %2, align 4
  store i32 %68, ptr %10, align 4
  br label %69

69:                                               ; preds = %87, %67
  %70 = load i32, ptr %9, align 4
  %71 = load i32, ptr %10, align 4
  %72 = icmp ult i32 %70, %71
  br i1 %72, label %73, label %90

73:                                               ; preds = %69
  %74 = load ptr, ptr %8, align 8
  %75 = load i32, ptr %9, align 4
  %76 = zext i32 %75 to i64
  %77 = getelementptr inbounds ptr, ptr %74, i64 %76
  %78 = load ptr, ptr %77, align 8
  %79 = getelementptr inbounds %struct.Decl_, ptr %78, i32 0, i32 10
  %80 = load ptr, ptr %79, align 8
  %81 = getelementptr inbounds %struct.Type_, ptr %80, i32 0, i32 1
  %82 = load ptr, ptr %81, align 8
  store ptr %82, ptr %11, align 8
  %83 = load ptr, ptr %11, align 8
  %84 = call zeroext i1 @x86_should_return_type_in_reg(ptr noundef %83)
  br i1 %84, label %86, label %85

85:                                               ; preds = %73
  store i1 false, ptr %5, align 1
  br label %91

86:                                               ; preds = %73
  br label %87

87:                                               ; preds = %86
  %88 = load i32, ptr %9, align 4
  %89 = add i32 %88, 1
  store i32 %89, ptr %9, align 4
  br label %69, !llvm.loop !7

90:                                               ; preds = %69
  store i1 true, ptr %5, align 1
  br label %91

91:                                               ; preds = %90, %85, %43, %42, %32, %26, %17
  %92 = load i1, ptr %5, align 1
  ret i1 %92
}