; Function Attrs: nounwind uwtable
define internal fastcc zeroext i1 @x86_should_return_type_in_reg(ptr noundef %0) unnamed_addr #0 {
  %2 = tail call i32 @type_size(ptr noundef %0) #4
  %3 = icmp ugt i32 %2, 8
  br i1 %3, label %is_power_of_two.exit.thread, label %.lr.ph

.lr.ph:                                           ; preds = %1, %tailrecurse
  %4 = phi i32 [ %15, %tailrecurse ], [ %2, %1 ]
  %.tr35 = phi ptr [ %14, %tailrecurse ], [ %0, %1 ]
  %5 = load i8, ptr getelementptr inbounds (%struct.PlatformTarget, ptr @platform_target, i64 0, i32 16), align 8
  %6 = and i8 %5, 4
  %.not = icmp ne i8 %6, 0
  %7 = tail call i32 @llvm.ctpop.i32(i32 %4), !range !7
  %or.cond = icmp eq i32 %7, 1
  %or.cond26 = select i1 %.not, i1 true, i1 %or.cond
  br i1 %or.cond26, label %8, label %is_power_of_two.exit.thread

8:                                                ; preds = %.lr.ph
  %9 = load i32, ptr %.tr35, align 8
  switch i32 %9, label %17 [
    i32 37, label %10
    i32 33, label %tailrecurse
    i32 1, label %12
    i32 25, label %12
    i32 31, label %12
    i32 32, label %12
    i32 24, label %12
    i32 30, label %12
    i32 22, label %12
    i32 21, label %12
    i32 29, label %12
    i32 42, label %12
    i32 36, label %12
    i32 38, label %12
    i32 39, label %12
    i32 0, label %12
    i32 43, label %12
    i32 41, label %12
    i32 40, label %12
    i32 35, label %12
    i32 28, label %12
    i32 18, label %12
    i32 20, label %12
    i32 3, label %is_power_of_two.exit.thread
    i32 4, label %is_power_of_two.exit.thread
    i32 5, label %is_power_of_two.exit.thread
    i32 6, label %is_power_of_two.exit.thread
    i32 7, label %is_power_of_two.exit.thread
    i32 8, label %is_power_of_two.exit.thread
    i32 9, label %is_power_of_two.exit.thread
    i32 10, label %is_power_of_two.exit.thread
    i32 11, label %is_power_of_two.exit.thread
    i32 12, label %is_power_of_two.exit.thread
    i32 14, label %is_power_of_two.exit.thread
    i32 13, label %is_power_of_two.exit.thread
    i32 15, label %is_power_of_two.exit.thread
    i32 16, label %is_power_of_two.exit.thread
    i32 17, label %is_power_of_two.exit.thread
    i32 2, label %is_power_of_two.exit.thread
    i32 23, label %is_power_of_two.exit.thread
    i32 34, label %is_power_of_two.exit.thread
    i32 19, label %is_power_of_two.exit.thread
  ]

10:                                               ; preds = %8
  %11 = icmp ne i32 %4, 8
  br label %is_power_of_two.exit.thread

12:                                               ; preds = %8, %8, %8, %8, %8, %8, %8, %8, %8, %8, %8, %8, %8, %8, %8, %8, %8, %8, %8, %8, %8
  tail call void (ptr, ...) @error_exit(ptr noundef nonnull @.str, ptr noundef nonnull @.str.1, ptr noundef nonnull @__func__.x86_should_return_type_in_reg, ptr noundef nonnull @.str.2, i32 noundef 126) #5
  unreachable

tailrecurse:                                      ; preds = %8
  %13 = getelementptr inbounds i8, ptr %.tr35, i64 56
  %14 = load ptr, ptr %13, align 8
  %15 = tail call i32 @type_size(ptr noundef %14) #4
  %16 = icmp ugt i32 %15, 8
  br i1 %16, label %is_power_of_two.exit.thread, label %.lr.ph

17:                                               ; preds = %8
  %18 = getelementptr inbounds i8, ptr %.tr35, i64 56
  %19 = load ptr, ptr %18, align 8
  %20 = getelementptr inbounds i8, ptr %19, i64 104
  %21 = load ptr, ptr %20, align 8
  %.not24 = icmp eq ptr %21, null
  br i1 %.not24, label %is_power_of_two.exit.thread, label %22

22:                                               ; preds = %17
  %23 = getelementptr inbounds i8, ptr %21, i64 -8
  %24 = load i32, ptr %23, align 4
  %.not80 = icmp eq i32 %24, 0
  br i1 %.not80, label %is_power_of_two.exit.thread, label %.lr.ph76.preheader

.lr.ph76.preheader:                               ; preds = %22
  %wide.trip.count = zext i32 %24 to i64
  br label %.lr.ph76

.lr.ph76:                                         ; preds = %.lr.ph76, %.lr.ph76.preheader
  %indvars.iv = phi i64 [ 0, %.lr.ph76.preheader ], [ %indvars.iv.next, %.lr.ph76 ]
  %25 = getelementptr inbounds ptr, ptr %21, i64 %indvars.iv
  %26 = load ptr, ptr %25, align 8
  %27 = getelementptr inbounds i8, ptr %26, i64 72
  %28 = load ptr, ptr %27, align 8
  %29 = getelementptr inbounds i8, ptr %28, i64 8
  %30 = load ptr, ptr %29, align 8
  %31 = tail call fastcc zeroext i1 @x86_should_return_type_in_reg(ptr noundef %30)
  %indvars.iv.next = add nuw nsw i64 %indvars.iv, 1
  %exitcond.not = icmp ne i64 %indvars.iv.next, %wide.trip.count
  %or.cond109.not = select i1 %31, i1 %exitcond.not, i1 false
  br i1 %or.cond109.not, label %.lr.ph76, label %is_power_of_two.exit.thread, !llvm.loop !8

is_power_of_two.exit.thread:                      ; preds = %tailrecurse, %8, %8, %8, %8, %8, %8, %8, %8, %8, %8, %8, %8, %8, %8, %8, %8, %8, %8, %8, %.lr.ph, %.lr.ph76, %17, %1, %22, %10
  %.019 = phi i1 [ %11, %10 ], [ true, %22 ], [ false, %1 ], [ true, %17 ], [ %31, %.lr.ph76 ], [ false, %tailrecurse ], [ true, %8 ], [ true, %8 ], [ true, %8 ], [ true, %8 ], [ true, %8 ], [ true, %8 ], [ true, %8 ], [ true, %8 ], [ true, %8 ], [ true, %8 ], [ true, %8 ], [ true, %8 ], [ true, %8 ], [ true, %8 ], [ true, %8 ], [ true, %8 ], [ true, %8 ], [ true, %8 ], [ true, %8 ], [ false, %.lr.ph ]
  ret i1 %.019
}